target datalayout = "e-m:e-p270:32:32-p271:32:32-p272:64:64-i64:64-i128:128-f80:128-n8:16:32:64-S128"
target triple = "x86_64-pc-linux-gnu"

%struct.H5F_t = type { ptr, ptr, ptr, ptr, i32, ptr, i8, i8, ptr, i32 }
%struct.H5F_shared_t = type { ptr, ptr, ptr, i8, i32, i32, %struct.H5F_mtab_t, ptr, i8, i8, i64, i32, i32, i64, i64, ptr, ptr, %struct.H5AC_cache_config_t, %struct.H5AC_cache_image_config_t, i8, i8, ptr, i64, i32, i8, i64, i64, double, i64, i64, i64, i32, i32, i32, i8, i32, ptr, ptr, ptr, ptr, i8, i8, i8, i64, i64, ptr, ptr, i32, i64, i8, i32, i8, i64, i8, [13 x i32], [13 x i64], [13 x ptr], i8, i64, i64, [7 x i32], [7 x i32], %struct.H5F_blk_aggr_t, %struct.H5F_blk_aggr_t, i64, i64, %struct.H5F_meta_accum_t, i32, i32, [30 x ptr], %struct.H5F_object_flush_t, i8, ptr }
%struct.H5F_mtab_t = type { i32, i32, ptr }
%struct.H5AC_cache_config_t = type { i32, i8, i8, i8, [1025 x i8], i8, i8, i64, double, i64, i64, i64, i32, double, double, i8, i64, i32, double, double, i32, double, double, i8, i64, i32, i8, double, i64, i32 }
%struct.H5AC_cache_image_config_t = type { i32, i8, i8, i32 }
%struct.H5F_blk_aggr_t = type { i64, i64, i64, i64, i64 }
%struct.H5F_meta_accum_t = type { ptr, i64, i64, i64, i64, i64, i8 }
%struct.H5F_object_flush_t = type { ptr, ptr }
%struct.H5F_super_t = type { %struct.H5C_cache_entry_t, i32, i8, i8, i8, i32, [2 x i32], i64, i64, i64, i64, ptr }
%struct.H5C_cache_entry_t = type { ptr, i64, i64, ptr, i8, ptr, i8, i8, i8, i8, i32, i8, i8, i8, i8, i8, i32, ptr, i32, i32, i32, i32, i32, i8, i8, ptr, ptr, ptr, ptr, ptr, ptr, i8, i32, i8, i64, ptr, i64, i64, i32, i8, i32, i32, i8, ptr, ptr, ptr }
%struct.H5F_info2_t = type { %struct.anon, %struct.anon.0, %struct.anon.1 }
%struct.anon = type { i32, i64, i64 }
%struct.anon.0 = type { i32, i64, i64 }
%struct.anon.1 = type { i32, i64, %struct.H5_ih_info_t }
%struct.H5_ih_info_t = type { i64, i64 }

@.str.2 = private unnamed_addr constant [100 x i8] c"generated/home/dtcxzyw/WorkSpace/Projects/compilers/llvm-opt-benchmark/bench/hdf5/hdf5/src/H5Fint.c\00", align 1
@H5E_FILE_g = external global i64, align 8
@H5E_CANTGET_g = external global i64, align 8
@__func__.H5F__get_info = private unnamed_addr constant [14 x i8] c"H5F__get_info\00", align 1
@.str.143 = private unnamed_addr constant [36 x i8] c"unable to retrieve superblock sizes\00", align 1
@.str.144 = private unnamed_addr constant [42 x i8] c"unable to retrieve free space information\00", align 1
@.str.145 = private unnamed_addr constant [50 x i8] c"unable to retrieve SOHM index & heap storage info\00", align 1

; Function Attrs: nounwind uwtable
define i32 @H5F__get_info(ptr noundef %0, ptr noundef %1) #0 {
  %3 = alloca ptr, align 8
  %4 = alloca ptr, align 8
  %5 = alloca i32, align 4
  %6 = alloca i8, align 1
  store ptr %0, ptr %3, align 8
  store ptr %1, ptr %4, align 8
  store i32 0, ptr %5, align 4
  store i8 0, ptr %6, align 1
  %7 = load ptr, ptr %4, align 8
  call void @llvm.memset.p0.i64(ptr align 8 %7, i8 0, i64 80, i1 false)
  %8 = load ptr, ptr %3, align 8
  %9 = load ptr, ptr %4, align 8
  %10 = getelementptr inbounds %struct.H5F_info2_t, ptr %9, i32 0, i32 0
  %11 = getelementptr inbounds %struct.anon, ptr %10, i32 0, i32 1
  %12 = load ptr, ptr %4, align 8
  %13 = getelementptr inbounds %struct.H5F_info2_t, ptr %12, i32 0, i32 0
  %14 = getelementptr inbounds %struct.anon, ptr %13, i32 0, i32 2
  %15 = call i32 @H5F__super_size(ptr noundef %8, ptr noundef %11, ptr noundef %14)
  %16 = icmp slt i32 %15, 0
  br i1 %16, label %17, label %32

17:                                               ; preds = %2
  br label %18

18:                                               ; preds = %17
  br label %19

19:                                               ; preds = %18
  br label %20

20:                                               ; preds = %19
  %21 = load i64, ptr @H5E_FILE_g, align 8
  %22 = load i64, ptr @H5E_CANTGET_g, align 8
  %23 = call i32 (ptr, ptr, i32, i64, i64, ptr, ...) @H5E_printf_stack(ptr noundef @.str.2, ptr noundef @__func__.H5F__get_info, i32 noundef 3340, i64 noundef %21, i64 noundef %22, ptr noundef @.str.143)
  br label %24

24:                                               ; preds = %20
  store i8 1, ptr %6, align 1
  %25 = load i8, ptr %6, align 1
  %26 = trunc i8 %25 to i1
  %27 = zext i1 %26 to i8
  store i8 %27, ptr %6, align 1
  br label %28

28:                                               ; preds = %24
  br label %29

29:                                               ; preds = %28
  store i32 -1, ptr %5, align 4
  br label %112

30:                                               ; No predecessors!
  br label %31

31:                                               ; preds = %30
  br label %32

32:                                               ; preds = %31, %2
  %33 = load ptr, ptr %3, align 8
  %34 = load ptr, ptr %4, align 8
  %35 = getelementptr inbounds %struct.H5F_info2_t, ptr %34, i32 0, i32 1
  %36 = getelementptr inbounds %struct.anon.0, ptr %35, i32 0, i32 2
  %37 = load ptr, ptr %4, align 8
  %38 = getelementptr inbounds %struct.H5F_info2_t, ptr %37, i32 0, i32 1
  %39 = getelementptr inbounds %struct.anon.0, ptr %38, i32 0, i32 1
  %40 = call i32 @H5MF_get_freespace(ptr noundef %33, ptr noundef %36, ptr noundef %39)
  %41 = icmp slt i32 %40, 0
  br i1 %41, label %42, label %57

42:                                               ; preds = %32
  br label %43

43:                                               ; preds = %42
  br label %44

44:                                               ; preds = %43
  br label %45

45:                                               ; preds = %44
  %46 = load i64, ptr @H5E_FILE_g, align 8
  %47 = load i64, ptr @H5E_CANTGET_g, align 8
  %48 = call i32 (ptr, ptr, i32, i64, i64, ptr, ...) @H5E_printf_stack(ptr noundef @.str.2, ptr noundef @__func__.H5F__get_info, i32 noundef 3344, i64 noundef %46, i64 noundef %47, ptr noundef @.str.144)
  br label %49

49:                                               ; preds = %45
  store i8 1, ptr %6, align 1
  %50 = load i8, ptr %6, align 1
  %51 = trunc i8 %50 to i1
  %52 = zext i1 %51 to i8
  store i8 %52, ptr %6, align 1
  br label %53

53:                                               ; preds = %49
  br label %54

54:                                               ; preds = %53
  store i32 -1, ptr %5, align 4
  br label %112

55:                                               ; No predecessors!
  br label %56

56:                                               ; preds = %55
  br label %57

57:                                               ; preds = %56, %32
  %58 = load ptr, ptr %3, align 8
  %59 = getelementptr inbounds %struct.H5F_t, ptr %58, i32 0, i32 2
  %60 = load ptr, ptr %59, align 8
  %61 = getelementptr inbounds %struct.H5F_shared_t, ptr %60, i32 0, i32 10
  %62 = load i64, ptr %61, align 8
  %63 = icmp ne i64 %62, -1
  br i1 %63, label %64, label %90

64:                                               ; preds = %57
  %65 = load ptr, ptr %3, align 8
  %66 = load ptr, ptr %4, align 8
  %67 = getelementptr inbounds %struct.H5F_info2_t, ptr %66, i32 0, i32 2
  %68 = getelementptr inbounds %struct.anon.1, ptr %67, i32 0, i32 1
  %69 = load ptr, ptr %4, align 8
  %70 = getelementptr inbounds %struct.H5F_info2_t, ptr %69, i32 0, i32 2
  %71 = getelementptr inbounds %struct.anon.1, ptr %70, i32 0, i32 2
  %72 = call i32 @H5SM_ih_size(ptr noundef %65, ptr noundef %68, ptr noundef %71)
  %73 = icmp slt i32 %72, 0
  br i1 %73, label %74, label %89

74:                                               ; preds = %64
  br label %75

75:                                               ; preds = %74
  br label %76

76:                                               ; preds = %75
  br label %77

77:                                               ; preds = %76
  %78 = load i64, ptr @H5E_FILE_g, align 8
  %79 = load i64, ptr @H5E_CANTGET_g, align 8
  %80 = call i32 (ptr, ptr, i32, i64, i64, ptr, ...) @H5E_printf_stack(ptr noundef @.str.2, ptr noundef @__func__.H5F__get_info, i32 noundef 3349, i64 noundef %78, i64 noundef %79, ptr noundef @.str.145)
  br label %81

81:                                               ; preds = %77
  store i8 1, ptr %6, align 1
  %82 = load i8, ptr %6, align 1
  %83 = trunc i8 %82 to i1
  %84 = zext i1 %83 to i8
  store i8 %84, ptr %6, align 1
  br label %85

85:                                               ; preds = %81
  br label %86

86:                                               ; preds = %85
  store i32 -1, ptr %5, align 4
  br label %112

87:                                               ; No predecessors!
  br label %88

88:                                               ; preds = %87
  br label %89

89:                                               ; preds = %88, %64
  br label %90

90:                                               ; preds = %89, %57
  %91 = load ptr, ptr %3, align 8
  %92 = getelementptr inbounds %struct.H5F_t, ptr %91, i32 0, i32 2
  %93 = load ptr, ptr %92, align 8
  %94 = getelementptr inbounds %struct.H5F_shared_t, ptr %93, i32 0, i32 1
  %95 = load ptr, ptr %94, align 8
  %96 = getelementptr inbounds %struct.H5F_super_t, ptr %95, i32 0, i32 1
  %97 = load i32, ptr %96, align 8
  %98 = load ptr, ptr %4, align 8
  %99 = getelementptr inbounds %struct.H5F_info2_t, ptr %98, i32 0, i32 0
  %100 = getelementptr inbounds %struct.anon, ptr %99, i32 0, i32 0
  store i32 %97, ptr %100, align 8
  %101 = load ptr, ptr %3, align 8
  %102 = getelementptr inbounds %struct.H5F_t, ptr %101, i32 0, i32 2
  %103 = load ptr, ptr %102, align 8
  %104 = getelementptr inbounds %struct.H5F_shared_t, ptr %103, i32 0, i32 11
  %105 = load i32, ptr %104, align 8
  %106 = load ptr, ptr %4, align 8
  %107 = getelementptr inbounds %struct.H5F_info2_t, ptr %106, i32 0, i32 2
  %108 = getelementptr inbounds %struct.anon.1, ptr %107, i32 0, i32 0
  store i32 %105, ptr %108, align 8
  %109 = load ptr, ptr %4, align 8
  %110 = getelementptr inbounds %struct.H5F_info2_t, ptr %109, i32 0, i32 1
  %111 = getelementptr inbounds %struct.anon.0, ptr %110, i32 0, i32 0
  store i32 0, ptr %111, align 8
  br label %112

112:                                              ; preds = %90, %86, %54, %29
  %113 = load i32, ptr %5, align 4
  ret i32 %113
}