; Function Attrs: nounwind uwtable
define range(i32 -1, 1) i32 @H5F__get_info(ptr noundef %0, ptr noundef %1) local_unnamed_addr #0 {
  tail call void @llvm.memset.p0.i64(ptr noundef nonnull align 8 dereferenceable(80) %1, i8 0, i64 80, i1 false)
  %3 = getelementptr inbounds i8, ptr %1, i64 8
  %4 = getelementptr inbounds i8, ptr %1, i64 16
  %5 = tail call i32 @H5F__super_size(ptr noundef %0, ptr noundef nonnull %3, ptr noundef nonnull %4) #22
  %6 = icmp slt i32 %5, 0
  br i1 %6, label %7, label %11

7:                                                ; preds = %2
  %8 = load i64, ptr @H5E_FILE_g, align 8
  %9 = load i64, ptr @H5E_CANTGET_g, align 8
  %10 = tail call i32 (ptr, ptr, i32, i64, i64, ptr, ...) @H5E_printf_stack(ptr noundef nonnull @.str.2, ptr noundef nonnull @__func__.H5F__get_info, i32 noundef 3340, i64 noundef %8, i64 noundef %9, ptr noundef nonnull @.str.143) #22
  br label %45

11:                                               ; preds = %2
  %12 = getelementptr inbounds i8, ptr %1, i64 24
  %13 = getelementptr inbounds i8, ptr %1, i64 40
  %14 = getelementptr inbounds i8, ptr %1, i64 32
  %15 = tail call i32 @H5MF_get_freespace(ptr noundef %0, ptr noundef nonnull %13, ptr noundef nonnull %14) #22
  %16 = icmp slt i32 %15, 0
  br i1 %16, label %17, label %21

17:                                               ; preds = %11
  %18 = load i64, ptr @H5E_FILE_g, align 8
  %19 = load i64, ptr @H5E_CANTGET_g, align 8
  %20 = tail call i32 (ptr, ptr, i32, i64, i64, ptr, ...) @H5E_printf_stack(ptr noundef nonnull @.str.2, ptr noundef nonnull @__func__.H5F__get_info, i32 noundef 3344, i64 noundef %18, i64 noundef %19, ptr noundef nonnull @.str.144) #22
  br label %45

21:                                               ; preds = %11
  %22 = getelementptr inbounds i8, ptr %0, i64 16
  %23 = load ptr, ptr %22, align 8
  %24 = getelementptr inbounds i8, ptr %23, i64 72
  %25 = load i64, ptr %24, align 8
  %.not = icmp eq i64 %25, -1
  br i1 %.not, label %35, label %26

26:                                               ; preds = %21
  %27 = getelementptr inbounds i8, ptr %1, i64 56
  %28 = getelementptr inbounds i8, ptr %1, i64 64
  %29 = tail call i32 @H5SM_ih_size(ptr noundef nonnull %0, ptr noundef nonnull %27, ptr noundef nonnull %28) #22
  %30 = icmp slt i32 %29, 0
  br i1 %30, label %31, label %._crit_edge

._crit_edge:                                      ; preds = %26
  %.pre = load ptr, ptr %22, align 8
  br label %35

31:                                               ; preds = %26
  %32 = load i64, ptr @H5E_FILE_g, align 8
  %33 = load i64, ptr @H5E_CANTGET_g, align 8
  %34 = tail call i32 (ptr, ptr, i32, i64, i64, ptr, ...) @H5E_printf_stack(ptr noundef nonnull @.str.2, ptr noundef nonnull @__func__.H5F__get_info, i32 noundef 3349, i64 noundef %32, i64 noundef %33, ptr noundef nonnull @.str.145) #22
  br label %45

35:                                               ; preds = %._crit_edge, %21
  %36 = phi ptr [ %.pre, %._crit_edge ], [ %23, %21 ]
  %37 = getelementptr inbounds i8, ptr %36, i64 8
  %38 = load ptr, ptr %37, align 8
  %39 = getelementptr inbounds i8, ptr %38, i64 248
  %40 = load i32, ptr %39, align 8
  store i32 %40, ptr %1, align 8
  %41 = load ptr, ptr %22, align 8
  %42 = getelementptr inbounds i8, ptr %41, i64 80
  %43 = load i32, ptr %42, align 8
  %44 = getelementptr inbounds i8, ptr %1, i64 48
  store i32 %43, ptr %44, align 8
  store i32 0, ptr %12, align 8
  br label %45

45:                                               ; preds = %35, %31, %17, %7
  %.0 = phi i32 [ -1, %7 ], [ -1, %17 ], [ -1, %31 ], [ 0, %35 ]
  ret i32 %.0
}